; Function Attrs: mustprogress nounwind uwtable
define hidden void @_ZN19maximize_ac_sharingD2Ev(ptr noundef nonnull align 8 dereferenceable(112) %this) unnamed_addr #4 align 2 personality ptr @__gxx_personality_v0 {
entry:
  store ptr getelementptr inbounds ({ [6 x ptr] }, ptr @_ZTV19maximize_ac_sharing, i64 0, i32 0, i64 2), ptr %this, align 8
  invoke void @_ZN19maximize_ac_sharing15restore_entriesEj(ptr noundef nonnull align 8 dereferenceable(112) %this, i32 noundef 0)
          to label %invoke.cont unwind label %terminate.lpad

invoke.cont:                                      ; preds = %entry
  %m_kinds = getelementptr inbounds i8, ptr %this, i64 104
  %0 = load ptr, ptr %m_kinds, align 8
  %tobool.not.i.i.i = icmp eq ptr %0, null
  br i1 %tobool.not.i.i.i, label %_ZN7svectorIijED2Ev.exit, label %if.then.i.i.i

if.then.i.i.i:                                    ; preds = %invoke.cont
  %add.ptr.i.i.i.i = getelementptr inbounds i8, ptr %0, i64 -8
  invoke void @_ZN6memory10deallocateEPv(ptr noundef nonnull %add.ptr.i.i.i.i)
          to label %_ZN7svectorIijED2Ev.exit unwind label %terminate.lpad.i.i

terminate.lpad.i.i:                               ; preds = %if.then.i.i.i
  %1 = landingpad { ptr, i32 }
          catch ptr null
  %2 = extractvalue { ptr, i32 } %1, 0
  tail call void @__clang_call_terminate(ptr %2) #20
  unreachable

_ZN7svectorIijED2Ev.exit:                         ; preds = %invoke.cont, %if.then.i.i.i
  %m_scopes = getelementptr inbounds i8, ptr %this, i64 96
  %3 = load ptr, ptr %m_scopes, align 8
  %tobool.not.i.i.i1 = icmp eq ptr %3, null
  br i1 %tobool.not.i.i.i1, label %_ZN7svectorIjjED2Ev.exit, label %if.then.i.i.i2

if.then.i.i.i2:                                   ; preds = %_ZN7svectorIijED2Ev.exit
  %add.ptr.i.i.i.i3 = getelementptr inbounds i8, ptr %3, i64 -8
  invoke void @_ZN6memory10deallocateEPv(ptr noundef nonnull %add.ptr.i.i.i.i3)
          to label %_ZN7svectorIjjED2Ev.exit unwind label %terminate.lpad.i.i4

terminate.lpad.i.i4:                              ; preds = %if.then.i.i.i2
  %4 = landingpad { ptr, i32 }
          catch ptr null
  %5 = extractvalue { ptr, i32 } %4, 0
  tail call void @__clang_call_terminate(ptr %5) #20
  unreachable

_ZN7svectorIjjED2Ev.exit:                         ; preds = %_ZN7svectorIijED2Ev.exit, %if.then.i.i.i2
  %m_entries = getelementptr inbounds i8, ptr %this, i64 88
  %6 = load ptr, ptr %m_entries, align 8
  %tobool.not.i.i.i5 = icmp eq ptr %6, null
  br i1 %tobool.not.i.i.i5, label %_ZN10ptr_vectorIN19maximize_ac_sharing5entryEED2Ev.exit, label %if.then.i.i.i6

if.then.i.i.i6:                                   ; preds = %_ZN7svectorIjjED2Ev.exit
  %add.ptr.i.i.i.i7 = getelementptr inbounds i8, ptr %6, i64 -8
  invoke void @_ZN6memory10deallocateEPv(ptr noundef nonnull %add.ptr.i.i.i.i7)
          to label %_ZN10ptr_vectorIN19maximize_ac_sharing5entryEED2Ev.exit unwind label %terminate.lpad.i.i8

terminate.lpad.i.i8:                              ; preds = %if.then.i.i.i6
  %7 = landingpad { ptr, i32 }
          catch ptr null
  %8 = extractvalue { ptr, i32 } %7, 0
  tail call void @__clang_call_terminate(ptr %8) #20
  unreachable

_ZN10ptr_vectorIN19maximize_ac_sharing5entryEED2Ev.exit: ; preds = %_ZN7svectorIjjED2Ev.exit, %if.then.i.i.i6
  %m_cache = getelementptr inbounds i8, ptr %this, i64 64
  %9 = load ptr, ptr %m_cache, align 8
  %cmp.i.i.i.i = icmp eq ptr %9, null
  br i1 %cmp.i.i.i.i, label %_ZN13ptr_hashtableIN19maximize_ac_sharing5entryE12obj_ptr_hashIS1_E8deref_eqIS1_EED2Ev.exit, label %for.cond.preheader.i.i.i.i

for.cond.preheader.i.i.i.i:                       ; preds = %_ZN10ptr_vectorIN19maximize_ac_sharing5entryEED2Ev.exit
  invoke void @_ZN6memory10deallocateEPv(ptr noundef nonnull %9)
          to label %_ZN13ptr_hashtableIN19maximize_ac_sharing5entryE12obj_ptr_hashIS1_E8deref_eqIS1_EED2Ev.exit unwind label %terminate.lpad.i.i9

terminate.lpad.i.i9:                              ; preds = %for.cond.preheader.i.i.i.i
  %10 = landingpad { ptr, i32 }
          catch ptr null
  %11 = extractvalue { ptr, i32 } %10, 0
  tail call void @__clang_call_terminate(ptr %11) #20
  unreachable

_ZN13ptr_hashtableIN19maximize_ac_sharing5entryE12obj_ptr_hashIS1_E8deref_eqIS1_EED2Ev.exit: ; preds = %_ZN10ptr_vectorIN19maximize_ac_sharing5entryEED2Ev.exit, %for.cond.preheader.i.i.i.i
  store ptr null, ptr %m_cache, align 8
  %m_region = getelementptr inbounds i8, ptr %this, i64 24
  tail call void @_ZN6regionD1Ev(ptr noundef nonnull align 8 dereferenceable(40) %m_region) #18
  ret void

terminate.lpad:                                   ; preds = %entry
  %12 = landingpad { ptr, i32 }
          catch ptr null
  %13 = extractvalue { ptr, i32 } %12, 0
  tail call void @__clang_call_terminate(ptr %13) #20
  unreachable
}